---
triple:          'arm64-apple-darwin'
binary-path:     '/Users/wangwei/Desktop/cpp_codes/debug/greedy'
relocations:
  - { offsetInCU: 0x32DC, offset: 0x32DC, size: 0x8, addend: 0x0, symName: __ZNSt3__111__introsortINS_17_ClassicAlgPolicyERPFb4itemS2_EPS2_Lb0EEEvT1_S7_T0_NS_15iterator_traitsIS7_E15difference_typeEb, symObjAddr: 0x488, symBinAddr: 0x100004620, symSize: 0x4CC }
  - { offsetInCU: 0x3433, offset: 0x3433, size: 0x8, addend: 0x0, symName: __ZNSt3__126__insertion_sort_unguardedB8ue170006INS_17_ClassicAlgPolicyERPFb4itemS2_EPS2_EEvT1_S7_T0_, symObjAddr: 0xC0C, symBinAddr: 0x100004DA4, symSize: 0x154 }
  - { offsetInCU: 0x3523, offset: 0x3523, size: 0x8, addend: 0x0, symName: __ZNSt3__111__sift_downB8ue170006INS_17_ClassicAlgPolicyERPFb4itemS2_EPS2_EEvT1_OT0_NS_15iterator_traitsIS7_E15difference_typeES7_, symObjAddr: 0x2104, symBinAddr: 0x10000629C, symSize: 0x270 }
  - { offsetInCU: 0x35D0, offset: 0x35D0, size: 0x8, addend: 0x0, symName: __ZNSt3__117__floyd_sift_downB8ue170006INS_17_ClassicAlgPolicyERPFb4itemS2_EPS2_EET1_S7_OT0_NS_15iterator_traitsIS7_E15difference_typeE, symObjAddr: 0x2510, symBinAddr: 0x1000066A8, symSize: 0x118 }
  - { offsetInCU: 0x3668, offset: 0x3668, size: 0x8, addend: 0x0, symName: __ZNSt3__131__partition_with_equals_on_leftB8ue170006INS_17_ClassicAlgPolicyEP4itemRPFbS2_S2_EEET0_S7_S7_T1_, symObjAddr: 0xFF8, symBinAddr: 0x100005190, symSize: 0x298 }
  - { offsetInCU: 0x3723, offset: 0x3723, size: 0x8, addend: 0x0, symName: __ZNSt3__118__bitset_partitionB8ue170006INS_17_ClassicAlgPolicyEP4itemRPFbS2_S2_EEENS_4pairIT0_bEES8_S8_T1_, symObjAddr: 0x1290, symBinAddr: 0x100005428, symSize: 0x380 }
  - { offsetInCU: 0x381C, offset: 0x381C, size: 0x8, addend: 0x0, symName: __ZNSt3__124__swap_bitmap_pos_withinB8ue170006INS_17_ClassicAlgPolicyEP4itemEEvRT0_S5_RyS6_, symObjAddr: 0x2D18, symBinAddr: 0x100006EB0, symSize: 0x1E0 }
  - { offsetInCU: 0x38E9, offset: 0x38E9, size: 0x8, addend: 0x0, symName: __ZNSt3__132__partition_with_equals_on_rightB8ue170006INS_17_ClassicAlgPolicyEP4itemRPFbS2_S2_EEENS_4pairIT0_bEES8_S8_T1_, symObjAddr: 0x1610, symBinAddr: 0x1000057A8, symSize: 0x294 }
  - { offsetInCU: 0x39B3, offset: 0x39B3, size: 0x8, addend: 0x0, symName: __ZNSt3__127__insertion_sort_incompleteB8ue170006INS_17_ClassicAlgPolicyERPFb4itemS2_EPS2_EEbT1_S7_T0_, symObjAddr: 0x18A4, symBinAddr: 0x100005A3C, symSize: 0x354 }
  - { offsetInCU: 0x3AA9, offset: 0x3AA9, size: 0x8, addend: 0x0, symName: __ZNSt3__124__put_character_sequenceB8ue170006IcNS_11char_traitsIcEEEERNS_13basic_ostreamIT_T0_EES7_PKS4_m, symObjAddr: 0x3078, symBinAddr: 0x100007210, symSize: 0x1EC }
  - { offsetInCU: 0x54C5, offset: 0x54C5, size: 0x8, addend: 0x0, symName: __ZNSt3__14sortB8ue170006IP4itemPFbS1_S1_EEEvT_S5_T0_, symObjAddr: 0x288, symBinAddr: 0x100004420, symSize: 0x38 }
  - { offsetInCU: 0x551F, offset: 0x551F, size: 0x8, addend: 0x0, symName: __ZNSt3__1lsB8ue170006INS_11char_traitsIcEEEERNS_13basic_ostreamIcT_EES6_PKc, symObjAddr: 0x2C0, symBinAddr: 0x100004458, symSize: 0x48 }
  - { offsetInCU: 0x5565, offset: 0x5565, size: 0x8, addend: 0x0, symName: __ZNSt3__111__sort_implB8ue170006INS_17_ClassicAlgPolicyEP4itemPFbS2_S2_EEEvT0_S6_RT1_, symObjAddr: 0x308, symBinAddr: 0x1000044A0, symSize: 0x78 }
  - { offsetInCU: 0x55C8, offset: 0x55C8, size: 0x8, addend: 0x0, symName: __ZNSt3__123__debug_randomize_rangeB8ue170006INS_17_ClassicAlgPolicyEP4itemS3_EEvT0_T1_, symObjAddr: 0x380, symBinAddr: 0x100004518, symSize: 0x14 }
  - { offsetInCU: 0x5619, offset: 0x5619, size: 0x8, addend: 0x0, symName: __ZNSt3__115__sort_dispatchB8ue170006INS_17_ClassicAlgPolicyEP4itemPFbS2_S2_EEEvT0_S6_RT1_, symObjAddr: 0x394, symBinAddr: 0x10000452C, symSize: 0x64 }
  - { offsetInCU: 0x5697, offset: 0x5697, size: 0x8, addend: 0x0, symName: __ZNSt3__113__unwrap_iterB8ue170006IP4itemNS_18__unwrap_iter_implIS2_Lb1EEELi0EEEDTclsrT0_8__unwrapclsr3stdE7declvalIT_EEEES6_, symObjAddr: 0x3F8, symBinAddr: 0x100004590, symSize: 0x24 }
  - { offsetInCU: 0x56DB, offset: 0x56DB, size: 0x8, addend: 0x0, symName: __ZNSt3__135__check_strict_weak_ordering_sortedB8ue170006IP4itemPFbS1_S1_EEEvT_S5_RT0_, symObjAddr: 0x41C, symBinAddr: 0x1000045B4, symSize: 0x18 }
  - { offsetInCU: 0x5731, offset: 0x5731, size: 0x8, addend: 0x0, symName: __ZNSt3__17__log2iB8ue170006IlEET_S1_, symObjAddr: 0x434, symBinAddr: 0x1000045CC, symSize: 0x54 }
  - { offsetInCU: 0x5768, offset: 0x5768, size: 0x8, addend: 0x0, symName: __ZNSt3__112__libcpp_clzB8ue170006Em, symObjAddr: 0x96C, symBinAddr: 0x100004B04, symSize: 0x1C }
  - { offsetInCU: 0x587E, offset: 0x587E, size: 0x8, addend: 0x0, symName: __ZNSt3__124__sort3_maybe_branchlessB8ue170006INS_17_ClassicAlgPolicyERPFb4itemS2_EPS2_EENS_9enable_ifIXntsr21__use_branchless_sortIT0_T1_EE5valueEvE4typeES9_S9_S9_S8_, symObjAddr: 0x9BC, symBinAddr: 0x100004B54, symSize: 0x3C }
  - { offsetInCU: 0x58EF, offset: 0x58EF, size: 0x8, addend: 0x0, symName: __ZNSt3__124__sort4_maybe_branchlessB8ue170006INS_17_ClassicAlgPolicyERPFb4itemS2_EPS2_EENS_9enable_ifIXntsr21__use_branchless_sortIT0_T1_EE5valueEvE4typeES9_S9_S9_S9_S8_, symObjAddr: 0x9F8, symBinAddr: 0x100004B90, symSize: 0x44 }
  - { offsetInCU: 0x596E, offset: 0x596E, size: 0x8, addend: 0x0, symName: __ZNSt3__124__sort5_maybe_branchlessB8ue170006INS_17_ClassicAlgPolicyERPFb4itemS2_EPS2_EENS_9enable_ifIXntsr21__use_branchless_sortIT0_T1_EE5valueEvE4typeES9_S9_S9_S9_S9_S8_, symObjAddr: 0xA3C, symBinAddr: 0x100004BD4, symSize: 0x4C }
  - { offsetInCU: 0x59FB, offset: 0x59FB, size: 0x8, addend: 0x0, symName: __ZNSt3__116__insertion_sortB8ue170006INS_17_ClassicAlgPolicyERPFb4itemS2_EPS2_EEvT1_S7_T0_, symObjAddr: 0xA88, symBinAddr: 0x100004C20, symSize: 0x184 }
  - { offsetInCU: 0x5ABE, offset: 0x5ABE, size: 0x8, addend: 0x0, symName: __ZNSt3__114__partial_sortB8ue170006INS_17_ClassicAlgPolicyERPFb4itemS2_EPS2_S6_EET1_S7_S7_T2_RT0_, symObjAddr: 0xD60, symBinAddr: 0x100004EF8, symSize: 0x94 }
  - { offsetInCU: 0x5B46, offset: 0x5B46, size: 0x8, addend: 0x0, symName: __ZNSt3__17__sort3B8ue170006INS_17_ClassicAlgPolicyERPFb4itemS2_EPS2_EEjT1_S7_S7_T0_, symObjAddr: 0xDF4, symBinAddr: 0x100004F8C, symSize: 0x1D0 }
  - { offsetInCU: 0x5BC5, offset: 0x5BC5, size: 0x8, addend: 0x0, symName: __ZNSt3__19iter_swapB8ue170006IP4itemS2_EEvT_T0_, symObjAddr: 0x1C10, symBinAddr: 0x100005DA8, symSize: 0x2C }
  - { offsetInCU: 0x5C0D, offset: 0x5C0D, size: 0x8, addend: 0x0, symName: __ZNSt3__14swapB8ue170006I4itemEENS_9enable_ifIXaasr21is_move_constructibleIT_EE5valuesr18is_move_assignableIS3_EE5valueEvE4typeERS3_S6_, symObjAddr: 0x1C3C, symBinAddr: 0x100005DD4, symSize: 0x3C }
  - { offsetInCU: 0x5C5E, offset: 0x5C5E, size: 0x8, addend: 0x0, symName: __ZNSt3__17__sort4B8ue170006INS_17_ClassicAlgPolicyERPFb4itemS2_EPS2_EEvT1_S7_S7_S7_T0_, symObjAddr: 0x1C78, symBinAddr: 0x100005E10, symSize: 0x10C }
  - { offsetInCU: 0x5CD9, offset: 0x5CD9, size: 0x8, addend: 0x0, symName: __ZNSt3__17__sort5B8ue170006INS_17_ClassicAlgPolicyERPFb4itemS2_EPS2_EEvT1_S7_S7_S7_S7_T0_, symObjAddr: 0x1D84, symBinAddr: 0x100005F1C, symSize: 0x158 }
  - { offsetInCU: 0x5D86, offset: 0x5D86, size: 0x8, addend: 0x0, symName: __ZNSt3__119__partial_sort_implB8ue170006INS_17_ClassicAlgPolicyERPFb4itemS2_EPS2_S6_EET1_S7_S7_T2_OT0_, symObjAddr: 0x1F20, symBinAddr: 0x1000060B8, symSize: 0x12C }
  - { offsetInCU: 0x5E1C, offset: 0x5E1C, size: 0x8, addend: 0x0, symName: __ZNSt3__111__make_heapB8ue170006INS_17_ClassicAlgPolicyERPFb4itemS2_EPS2_EEvT1_S7_OT0_, symObjAddr: 0x204C, symBinAddr: 0x1000061E4, symSize: 0xB8 }
  - { offsetInCU: 0x5EBE, offset: 0x5EBE, size: 0x8, addend: 0x0, symName: __ZNSt3__111__sort_heapB8ue170006INS_17_ClassicAlgPolicyERPFb4itemS2_EPS2_EEvT1_S7_OT0_, symObjAddr: 0x2374, symBinAddr: 0x10000650C, symSize: 0xA8 }
  - { offsetInCU: 0x5F60, offset: 0x5F60, size: 0x8, addend: 0x0, symName: __ZNSt3__110__pop_heapB8ue170006INS_17_ClassicAlgPolicyEPFb4itemS2_EPS2_EEvT1_S6_RT0_NS_15iterator_traitsIS6_E15difference_typeE, symObjAddr: 0x241C, symBinAddr: 0x1000065B4, symSize: 0xF4 }
  - { offsetInCU: 0x6010, offset: 0x6010, size: 0x8, addend: 0x0, symName: __ZNSt3__19__sift_upB8ue170006INS_17_ClassicAlgPolicyERPFb4itemS2_EPS2_EEvT1_S7_OT0_NS_15iterator_traitsIS7_E15difference_typeE, symObjAddr: 0x2628, symBinAddr: 0x1000067C0, symSize: 0x150 }
  - { offsetInCU: 0x60C0, offset: 0x60C0, size: 0x8, addend: 0x0, symName: __ZNSt3__122__populate_left_bitsetB8ue170006IRPFb4itemS1_EPS1_S1_EEvT0_T_RT1_Ry, symObjAddr: 0x2778, symBinAddr: 0x100006910, symSize: 0xC4 }
  - { offsetInCU: 0x617B, offset: 0x617B, size: 0x8, addend: 0x0, symName: __ZNSt3__123__populate_right_bitsetB8ue170006IRPFb4itemS1_EPS1_S1_EEvT0_T_RT1_Ry, symObjAddr: 0x283C, symBinAddr: 0x1000069D4, symSize: 0xBC }
  - { offsetInCU: 0x6236, offset: 0x6236, size: 0x8, addend: 0x0, symName: __ZNSt3__117__swap_bitmap_posB8ue170006INS_17_ClassicAlgPolicyEP4itemEEvT0_S4_RyS5_, symObjAddr: 0x28F8, symBinAddr: 0x100006A90, symSize: 0x100 }
  - { offsetInCU: 0x62D7, offset: 0x62D7, size: 0x8, addend: 0x0, symName: __ZNSt3__133__bitset_partition_partial_blocksB8ue170006INS_17_ClassicAlgPolicyERPFb4itemS2_EPS2_S2_EEvRT1_S8_T0_RT2_RySC_, symObjAddr: 0x29F8, symBinAddr: 0x100006B90, symSize: 0x320 }
  - { offsetInCU: 0x645B, offset: 0x645B, size: 0x8, addend: 0x0, symName: __ZNSt3__19make_pairB8ue170006IRP4itemRbEENS_4pairINS_18__unwrap_ref_decayIT_E4typeENS6_IT0_E4typeEEEOS7_OSA_, symObjAddr: 0x2EF8, symBinAddr: 0x100007090, symSize: 0x38 }
  - { offsetInCU: 0x64AA, offset: 0x64AA, size: 0x8, addend: 0x0, symName: __ZNSt3__112__libcpp_ctzB8ue170006Ey, symObjAddr: 0x2F30, symBinAddr: 0x1000070C8, symSize: 0x20 }
  - { offsetInCU: 0x64D6, offset: 0x64D6, size: 0x8, addend: 0x0, symName: __ZNSt3__113__libcpp_blsrB8ue170006Ey, symObjAddr: 0x2F50, symBinAddr: 0x1000070E8, symSize: 0x2C }
  - { offsetInCU: 0x6502, offset: 0x6502, size: 0x8, addend: 0x0, symName: __ZNSt3__112__libcpp_clzB8ue170006Ey, symObjAddr: 0x2FB0, symBinAddr: 0x100007148, symSize: 0x1C }
  - { offsetInCU: 0x6655, offset: 0x6655, size: 0x8, addend: 0x0, symName: __ZNSt3__112__to_addressB8ue170006I4itemEEPT_S3_, symObjAddr: 0x3064, symBinAddr: 0x1000071FC, symSize: 0x14 }
  - { offsetInCU: 0x668A, offset: 0x668A, size: 0x8, addend: 0x0, symName: __ZNSt3__116__pad_and_outputB8ue170006IcNS_11char_traitsIcEEEENS_19ostreambuf_iteratorIT_T0_EES6_PKS4_S8_S8_RNS_8ios_baseES4_, symObjAddr: 0x32B4, symBinAddr: 0x10000744C, symSize: 0x240 }
  - { offsetInCU: 0x6759, offset: 0x6759, size: 0x8, addend: 0x0, symName: __ZNSt3__112__to_addressB8ue170006IKcEEPT_S3_, symObjAddr: 0x3828, symBinAddr: 0x1000079C0, symSize: 0x14 }
  - { offsetInCU: 0x67C1, offset: 0x67C1, size: 0x8, addend: 0x0, symName: __ZNSt3__19use_facetB8ue170006INS_5ctypeIcEEEERKT_RKNS_6localeE, symObjAddr: 0x3AA8, symBinAddr: 0x100007C40, symSize: 0x2C }
  - { offsetInCU: 0x6C8E, offset: 0x6C8E, size: 0x8, addend: 0x0, symName: __ZNSt3__118__constexpr_strlenB8ue170006EPKc, symObjAddr: 0x3B40, symBinAddr: 0x100007CD8, symSize: 0x24 }
  - { offsetInCU: 0x95F2, offset: 0x95F2, size: 0x8, addend: 0x0, symName: __Z4comp4itemS_, symObjAddr: 0x0, symBinAddr: 0x100004198, symSize: 0x74 }
  - { offsetInCU: 0x962C, offset: 0x962C, size: 0x8, addend: 0x0, symName: _main, symObjAddr: 0x74, symBinAddr: 0x10000420C, symSize: 0x214 }
  - { offsetInCU: 0x9711, offset: 0x9711, size: 0x8, addend: 0x0, symName: __ZNSt3__18_IterOpsINS_17_ClassicAlgPolicyEE9iter_swapB8ue170006IRP4itemS6_EEvOT_OT0_, symObjAddr: 0x988, symBinAddr: 0x100004B20, symSize: 0x34 }
  - { offsetInCU: 0x9758, offset: 0x9758, size: 0x8, addend: 0x0, symName: __ZNSt3__18_IterOpsINS_17_ClassicAlgPolicyEE9iter_swapB8ue170006IRP4itemS5_EEvOT_OT0_, symObjAddr: 0xFC4, symBinAddr: 0x10000515C, symSize: 0x34 }
  - { offsetInCU: 0x979F, offset: 0x979F, size: 0x8, addend: 0x0, symName: __ZNSt3__18_IterOpsINS_17_ClassicAlgPolicyEE11__iter_moveB8ue170006IRP4itemEENS_9enable_ifIXsr12is_referenceIDTdeclsr3stdE7declvalIRT_EEEEE5valueEDTclsr3stdE4movedeclsr3stdE7declvalIS9_EEEEE4typeEOS8_, symObjAddr: 0x1EDC, symBinAddr: 0x100006074, symSize: 0x28 }
  - { offsetInCU: 0x97CA, offset: 0x97CA, size: 0x8, addend: 0x0, symName: __ZNSt3__18_IterOpsINS_17_ClassicAlgPolicyEE25__validate_iter_referenceB8ue170006IRP4itemEEvv, symObjAddr: 0x1F04, symBinAddr: 0x10000609C, symSize: 0x4 }
  - { offsetInCU: 0x97E8, offset: 0x97E8, size: 0x8, addend: 0x0, symName: __ZNSt3__18_IterOpsINS_17_ClassicAlgPolicyEE4nextB8ue170006IP4itemEET_S6_S6_, symObjAddr: 0x1F08, symBinAddr: 0x1000060A0, symSize: 0x18 }
  - { offsetInCU: 0x981F, offset: 0x981F, size: 0x8, addend: 0x0, symName: __ZNSt3__18_IterOpsINS_17_ClassicAlgPolicyEE9iter_swapB8ue170006IP4itemS5_EEvOT_OT0_, symObjAddr: 0x2F7C, symBinAddr: 0x100007114, symSize: 0x34 }
  - { offsetInCU: 0x987F, offset: 0x987F, size: 0x8, addend: 0x0, symName: __ZNSt3__14pairIP4itembEC1B8ue170006IRS2_RbLPv0EEEOT_OT0_, symObjAddr: 0x2FCC, symBinAddr: 0x100007164, symSize: 0x3C }
  - { offsetInCU: 0x98DD, offset: 0x98DD, size: 0x8, addend: 0x0, symName: __ZNSt3__14pairIP4itembEC2B8ue170006IRS2_RbLPv0EEEOT_OT0_, symObjAddr: 0x3008, symBinAddr: 0x1000071A0, symSize: 0x38 }
  - { offsetInCU: 0x993B, offset: 0x993B, size: 0x8, addend: 0x0, symName: __ZNSt3__118__unwrap_iter_implIP4itemLb1EE8__unwrapB8ue170006ES2_, symObjAddr: 0x3040, symBinAddr: 0x1000071D8, symSize: 0x24 }
  - { offsetInCU: 0x995D, offset: 0x995D, size: 0x8, addend: 0x0, symName: __ZNSt3__111char_traitsIcE6lengthB8ue170006EPKc, symObjAddr: 0x3264, symBinAddr: 0x1000073FC, symSize: 0x34 }
  - { offsetInCU: 0x999D, offset: 0x999D, size: 0x8, addend: 0x0, symName: __ZNKSt3__113basic_ostreamIcNS_11char_traitsIcEEE6sentrycvbB8ue170006Ev, symObjAddr: 0x3298, symBinAddr: 0x100007430, symSize: 0x1C }
  - { offsetInCU: 0x99C3, offset: 0x99C3, size: 0x8, addend: 0x0, symName: __ZNSt3__119ostreambuf_iteratorIcNS_11char_traitsIcEEEC1B8ue170006ERNS_13basic_ostreamIcS2_EE, symObjAddr: 0x34F4, symBinAddr: 0x10000768C, symSize: 0x34 }
  - { offsetInCU: 0x99FB, offset: 0x99FB, size: 0x8, addend: 0x0, symName: __ZNKSt3__18ios_base5flagsB8ue170006Ev, symObjAddr: 0x3528, symBinAddr: 0x1000076C0, symSize: 0x18 }
  - { offsetInCU: 0x9A23, offset: 0x9A23, size: 0x8, addend: 0x0, symName: __ZNKSt3__19basic_iosIcNS_11char_traitsIcEEE4fillB8ue170006Ev, symObjAddr: 0x3540, symBinAddr: 0x1000076D8, symSize: 0x64 }
  - { offsetInCU: 0x9A4B, offset: 0x9A4B, size: 0x8, addend: 0x0, symName: __ZNKSt3__119ostreambuf_iteratorIcNS_11char_traitsIcEEE6failedB8ue170006Ev, symObjAddr: 0x35A4, symBinAddr: 0x10000773C, symSize: 0x24 }
  - { offsetInCU: 0x9A71, offset: 0x9A71, size: 0x8, addend: 0x0, symName: __ZNSt3__19basic_iosIcNS_11char_traitsIcEEE8setstateB8ue170006Ej, symObjAddr: 0x35C8, symBinAddr: 0x100007760, symSize: 0x2C }
  - { offsetInCU: 0x9AA6, offset: 0x9AA6, size: 0x8, addend: 0x0, symName: __ZNKSt3__18ios_base5widthB8ue170006Ev, symObjAddr: 0x3600, symBinAddr: 0x100007798, symSize: 0x18 }
  - { offsetInCU: 0x9ACE, offset: 0x9ACE, size: 0x8, addend: 0x0, symName: __ZNSt3__115basic_streambufIcNS_11char_traitsIcEEE5sputnB8ue170006EPKcl, symObjAddr: 0x3618, symBinAddr: 0x1000077B0, symSize: 0x3C }
  - { offsetInCU: 0x9B10, offset: 0x9B10, size: 0x8, addend: 0x0, symName: __ZNSt3__112basic_stringIcNS_11char_traitsIcEENS_9allocatorIcEEEC1B8ue170006Emc, symObjAddr: 0x3654, symBinAddr: 0x1000077EC, symSize: 0x3C }
  - { offsetInCU: 0x9B58, offset: 0x9B58, size: 0x8, addend: 0x0, symName: __ZNKSt3__112basic_stringIcNS_11char_traitsIcEENS_9allocatorIcEEE4dataB8ue170006Ev, symObjAddr: 0x3690, symBinAddr: 0x100007828, symSize: 0x28 }
  - { offsetInCU: 0x9B7E, offset: 0x9B7E, size: 0x8, addend: 0x0, symName: __ZNSt3__18ios_base5widthB8ue170006El, symObjAddr: 0x36B8, symBinAddr: 0x100007850, symSize: 0x2C }
  - { offsetInCU: 0x9BC4, offset: 0x9BC4, size: 0x8, addend: 0x0, symName: __ZNSt3__112basic_stringIcNS_11char_traitsIcEENS_9allocatorIcEEEC2B8ue170006Emc, symObjAddr: 0x36E4, symBinAddr: 0x10000787C, symSize: 0x4C }
  - { offsetInCU: 0x9C11, offset: 0x9C11, size: 0x8, addend: 0x0, symName: __ZNSt3__117__compressed_pairINS_12basic_stringIcNS_11char_traitsIcEENS_9allocatorIcEEE5__repES5_EC1B8ue170006INS_18__default_init_tagESA_EEOT_OT0_, symObjAddr: 0x3730, symBinAddr: 0x1000078C8, symSize: 0x3C }
  - { offsetInCU: 0x9C69, offset: 0x9C69, size: 0x8, addend: 0x0, symName: __ZNSt3__117__compressed_pairINS_12basic_stringIcNS_11char_traitsIcEENS_9allocatorIcEEE5__repES5_EC2B8ue170006INS_18__default_init_tagESA_EEOT_OT0_, symObjAddr: 0x376C, symBinAddr: 0x100007904, symSize: 0x3C }
  - { offsetInCU: 0x9CC1, offset: 0x9CC1, size: 0x8, addend: 0x0, symName: __ZNSt3__122__compressed_pair_elemINS_12basic_stringIcNS_11char_traitsIcEENS_9allocatorIcEEE5__repELi0ELb0EEC2B8ue170006ENS_18__default_init_tagE, symObjAddr: 0x37A8, symBinAddr: 0x100007940, symSize: 0x14 }
  - { offsetInCU: 0x9CF6, offset: 0x9CF6, size: 0x8, addend: 0x0, symName: __ZNSt3__122__compressed_pair_elemINS_9allocatorIcEELi1ELb1EEC2B8ue170006ENS_18__default_init_tagE, symObjAddr: 0x37BC, symBinAddr: 0x100007954, symSize: 0x2C }
  - { offsetInCU: 0x9D2B, offset: 0x9D2B, size: 0x8, addend: 0x0, symName: __ZNSt3__19allocatorIcEC2B8ue170006Ev, symObjAddr: 0x37E8, symBinAddr: 0x100007980, symSize: 0x2C }
  - { offsetInCU: 0x9D55, offset: 0x9D55, size: 0x8, addend: 0x0, symName: __ZNSt3__116__non_trivial_ifILb1ENS_9allocatorIcEEEC2B8ue170006Ev, symObjAddr: 0x3814, symBinAddr: 0x1000079AC, symSize: 0x14 }
  - { offsetInCU: 0x9D7F, offset: 0x9D7F, size: 0x8, addend: 0x0, symName: __ZNKSt3__112basic_stringIcNS_11char_traitsIcEENS_9allocatorIcEEE13__get_pointerB8ue170006Ev, symObjAddr: 0x383C, symBinAddr: 0x1000079D4, symSize: 0x54 }
  - { offsetInCU: 0x9DA5, offset: 0x9DA5, size: 0x8, addend: 0x0, symName: __ZNKSt3__112basic_stringIcNS_11char_traitsIcEENS_9allocatorIcEEE9__is_longB8ue170006Ev, symObjAddr: 0x3890, symBinAddr: 0x100007A28, symSize: 0x38 }
  - { offsetInCU: 0x9DCB, offset: 0x9DCB, size: 0x8, addend: 0x0, symName: __ZNKSt3__112basic_stringIcNS_11char_traitsIcEENS_9allocatorIcEEE18__get_long_pointerB8ue170006Ev, symObjAddr: 0x38C8, symBinAddr: 0x100007A60, symSize: 0x28 }
  - { offsetInCU: 0x9DF1, offset: 0x9DF1, size: 0x8, addend: 0x0, symName: __ZNKSt3__112basic_stringIcNS_11char_traitsIcEENS_9allocatorIcEEE19__get_short_pointerB8ue170006Ev, symObjAddr: 0x38F0, symBinAddr: 0x100007A88, symSize: 0x28 }
  - { offsetInCU: 0x9E17, offset: 0x9E17, size: 0x8, addend: 0x0, symName: __ZNKSt3__117__compressed_pairINS_12basic_stringIcNS_11char_traitsIcEENS_9allocatorIcEEE5__repES5_E5firstB8ue170006Ev, symObjAddr: 0x3918, symBinAddr: 0x100007AB0, symSize: 0x24 }
  - { offsetInCU: 0x9E3D, offset: 0x9E3D, size: 0x8, addend: 0x0, symName: __ZNKSt3__122__compressed_pair_elemINS_12basic_stringIcNS_11char_traitsIcEENS_9allocatorIcEEE5__repELi0ELb0EE5__getB8ue170006Ev, symObjAddr: 0x393C, symBinAddr: 0x100007AD4, symSize: 0x14 }
  - { offsetInCU: 0x9E63, offset: 0x9E63, size: 0x8, addend: 0x0, symName: __ZNSt3__114pointer_traitsIPKcE10pointer_toB8ue170006ERS1_, symObjAddr: 0x3950, symBinAddr: 0x100007AE8, symSize: 0x14 }
  - { offsetInCU: 0x9E86, offset: 0x9E86, size: 0x8, addend: 0x0, symName: __ZNSt3__119ostreambuf_iteratorIcNS_11char_traitsIcEEEC2B8ue170006ERNS_13basic_ostreamIcS2_EE, symObjAddr: 0x3964, symBinAddr: 0x100007AFC, symSize: 0x54 }
  - { offsetInCU: 0x9EBE, offset: 0x9EBE, size: 0x8, addend: 0x0, symName: __ZNKSt3__19basic_iosIcNS_11char_traitsIcEEE5rdbufB8ue170006Ev, symObjAddr: 0x39B8, symBinAddr: 0x100007B50, symSize: 0x24 }
  - { offsetInCU: 0x9EE6, offset: 0x9EE6, size: 0x8, addend: 0x0, symName: __ZNKSt3__18ios_base5rdbufB8ue170006Ev, symObjAddr: 0x39DC, symBinAddr: 0x100007B74, symSize: 0x18 }
  - { offsetInCU: 0x9F0C, offset: 0x9F0C, size: 0x8, addend: 0x0, symName: __ZNSt3__111char_traitsIcE11eq_int_typeB8ue170006Eii, symObjAddr: 0x39F4, symBinAddr: 0x100007B8C, symSize: 0x28 }
  - { offsetInCU: 0x9F3F, offset: 0x9F3F, size: 0x8, addend: 0x0, symName: __ZNSt3__111char_traitsIcE3eofB8ue170006Ev, symObjAddr: 0x3A1C, symBinAddr: 0x100007BB4, symSize: 0x8 }
  - { offsetInCU: 0x9F53, offset: 0x9F53, size: 0x8, addend: 0x0, symName: __ZNKSt3__19basic_iosIcNS_11char_traitsIcEEE5widenB8ue170006Ec, symObjAddr: 0x3A24, symBinAddr: 0x100007BBC, symSize: 0x84 }
  - { offsetInCU: 0x9FC1, offset: 0x9FC1, size: 0x8, addend: 0x0, symName: __ZNKSt3__15ctypeIcE5widenB8ue170006Ec, symObjAddr: 0x3AD4, symBinAddr: 0x100007C6C, symSize: 0x38 }
  - { offsetInCU: 0x9FF6, offset: 0x9FF6, size: 0x8, addend: 0x0, symName: __ZNSt3__18ios_base8setstateB8ue170006Ej, symObjAddr: 0x3B0C, symBinAddr: 0x100007CA4, symSize: 0x34 }
...
